target datalayout = "e-m:e-p270:32:32-p271:32:32-p272:64:64-i64:64-i128:128-f80:128-n8:16:32:64-S128"
target triple = "x86_64-pc-linux-gnu"

%struct.H5CX_node_t = type { %struct.H5CX_t, ptr }
%struct.H5CX_t = type { i64, ptr, i64, ptr, i64, ptr, i64, ptr, i64, ptr, i64, ptr, i64, i32, i64, i8, ptr, i8, ptr, i8, i32, i8, [3 x double], i8, i64, i8, i32, i8, %struct.H5Z_cb_t, i8, ptr, i8, %struct.H5T_vlen_alloc_info_t, i8, %struct.H5T_conv_cb_t, i8, i32, i8, i8, i8, i32, i8, i8, i32, i8, i8, i32, i8, i32, i8, i64, i8, i8, i8, i8, i8, ptr, i8, ptr, i8, i32, i8, i32, i8, %struct.H5VL_connector_prop_t, i8, ptr, i8 }
%struct.H5Z_cb_t = type { ptr, ptr }
%struct.H5T_vlen_alloc_info_t = type { ptr, ptr, ptr, ptr }
%struct.H5T_conv_cb_t = type { ptr, ptr }
%struct.H5VL_connector_prop_t = type { ptr, ptr }

@H5_libinit_g = external global i8, align 1
@H5_libterm_g = external global i8, align 1
@.str = private unnamed_addr constant [97 x i8] c"generated/home/dtcxzyw/WorkSpace/Projects/compilers/llvm-opt-benchmark/bench/hdf5/hdf5/src/H5L.c\00", align 1
@H5E_FUNC_g = external global i64, align 8
@H5E_CANTINIT_g = external global i64, align 8
@.str.1 = private unnamed_addr constant [30 x i8] c"library initialization failed\00", align 1
@H5L_init_g = external global i8, align 1
@.str.2 = private unnamed_addr constant [32 x i8] c"interface initialization failed\00", align 1
@H5E_CANTSET_g = external global i64, align 8
@.str.3 = private unnamed_addr constant [22 x i8] c"can't set API context\00", align 1
@H5E_LINK_g = external global i64, align 8
@H5E_CANTCREATE_g = external global i64, align 8
@.str.19 = private unnamed_addr constant [9 x i8] c"app_file\00", align 1
@.str.20 = private unnamed_addr constant [9 x i8] c"app_func\00", align 1
@.str.21 = private unnamed_addr constant [9 x i8] c"app_line\00", align 1
@.str.25 = private unnamed_addr constant [8 x i8] c"lcpl_id\00", align 1
@.str.26 = private unnamed_addr constant [8 x i8] c"lapl_id\00", align 1
@.str.27 = private unnamed_addr constant [6 x i8] c"es_id\00", align 1
@H5E_CANTINSERT_g = external global i64, align 8
@.str.28 = private unnamed_addr constant [34 x i8] c"can't insert token into event set\00", align 1
@__func__.H5Lcreate_hard_async = private unnamed_addr constant [21 x i8] c"H5Lcreate_hard_async\00", align 1
@.str.30 = private unnamed_addr constant [42 x i8] c"unable to asynchronously create hard link\00", align 1
@.str.31 = private unnamed_addr constant [16 x i8] c"*s*sIui*si*siii\00", align 1
@.str.32 = private unnamed_addr constant [11 x i8] c"cur_loc_id\00", align 1
@.str.33 = private unnamed_addr constant [9 x i8] c"cur_name\00", align 1
@.str.34 = private unnamed_addr constant [11 x i8] c"new_loc_id\00", align 1
@.str.35 = private unnamed_addr constant [9 x i8] c"new_name\00", align 1

; Function Attrs: nounwind uwtable
define i32 @H5Lcreate_hard_async(ptr noundef %0, ptr noundef %1, i32 noundef %2, i64 noundef %3, ptr noundef %4, i64 noundef %5, ptr noundef %6, i64 noundef %7, i64 noundef %8, i64 noundef %9) #0 {
  %11 = alloca ptr, align 8
  %12 = alloca ptr, align 8
  %13 = alloca i32, align 4
  %14 = alloca i64, align 8
  %15 = alloca ptr, align 8
  %16 = alloca i64, align 8
  %17 = alloca ptr, align 8
  %18 = alloca i64, align 8
  %19 = alloca i64, align 8
  %20 = alloca i64, align 8
  %21 = alloca ptr, align 8
  %22 = alloca ptr, align 8
  %23 = alloca ptr, align 8
  %24 = alloca i32, align 4
  %25 = alloca %struct.H5CX_node_t, align 8
  %26 = alloca i8, align 1
  %27 = alloca i8, align 1
  store ptr %0, ptr %11, align 8, !tbaa !7
  store ptr %1, ptr %12, align 8, !tbaa !7
  store i32 %2, ptr %13, align 4, !tbaa !12
  store i64 %3, ptr %14, align 8, !tbaa !3
  store ptr %4, ptr %15, align 8, !tbaa !7
  store i64 %5, ptr %16, align 8, !tbaa !3
  store ptr %6, ptr %17, align 8, !tbaa !7
  store i64 %7, ptr %18, align 8, !tbaa !3
  store i64 %8, ptr %19, align 8, !tbaa !3
  store i64 %9, ptr %20, align 8, !tbaa !3
  call void @llvm.lifetime.start.p0(i64 8, ptr %21) #8
  store ptr null, ptr %21, align 8, !tbaa !29
  call void @llvm.lifetime.start.p0(i64 8, ptr %22) #8
  store ptr null, ptr %22, align 8, !tbaa !22
  call void @llvm.lifetime.start.p0(i64 8, ptr %23) #8
  store ptr null, ptr %23, align 8, !tbaa !22
  call void @llvm.lifetime.start.p0(i64 4, ptr %24) #8
  store i32 0, ptr %24, align 4, !tbaa !12
  call void @llvm.lifetime.start.p0(i64 480, ptr %25) #8
  call void @llvm.memset.p0.i64(ptr align 8 %25, i8 0, i64 480, i1 false)
  call void @llvm.lifetime.start.p0(i64 1, ptr %26) #8
  store i8 0, ptr %26, align 1, !tbaa !14
  call void @llvm.lifetime.start.p0(i64 1, ptr %27) #8
  store i8 0, ptr %27, align 1, !tbaa !14
  br label %28

28:                                               ; preds = %10
  %29 = load i8, ptr @H5_libinit_g, align 1, !tbaa !14, !range !16, !noundef !17
  %30 = trunc i8 %29 to i1
  br i1 %30, label %35, label %31

31:                                               ; preds = %28
  %32 = load i8, ptr @H5_libterm_g, align 1, !tbaa !14, !range !16, !noundef !17
  %33 = trunc i8 %32 to i1
  %34 = xor i1 %33, true
  br label %35

35:                                               ; preds = %31, %28
  %36 = phi i1 [ false, %28 ], [ %34, %31 ]
  %37 = xor i1 %36, true
  %38 = xor i1 %37, true
  %39 = zext i1 %38 to i32
  %40 = sext i32 %39 to i64
  %41 = call i64 @llvm.expect.i64(i64 %40, i64 0)
  %42 = icmp ne i64 %41, 0
  br i1 %42, label %43, label %72

43:                                               ; preds = %35
  %44 = call i32 @H5_init_library()
  %45 = icmp slt i32 %44, 0
  %46 = xor i1 %45, true
  %47 = xor i1 %46, true
  %48 = zext i1 %47 to i32
  %49 = sext i32 %48 to i64
  %50 = call i64 @llvm.expect.i64(i64 %49, i64 0)
  %51 = icmp ne i64 %50, 0
  br i1 %51, label %52, label %71

52:                                               ; preds = %43
  br label %53

53:                                               ; preds = %52
  br label %54

54:                                               ; preds = %53
  br label %55

55:                                               ; preds = %54
  %56 = load i64, ptr @H5E_FUNC_g, align 8, !tbaa !3
  %57 = load i64, ptr @H5E_CANTINIT_g, align 8, !tbaa !3
  %58 = call i32 (ptr, ptr, i32, i64, i64, ptr, ...) @H5E_printf_stack(ptr noundef @.str, ptr noundef @__func__.H5Lcreate_hard_async, i32 noundef 563, i64 noundef %56, i64 noundef %57, ptr noundef @.str.1)
  br label %59

59:                                               ; preds = %55
  br label %60

60:                                               ; preds = %59
  store i8 1, ptr %27, align 1, !tbaa !14
  %61 = load i8, ptr %27, align 1, !tbaa !14, !range !16, !noundef !17
  %62 = trunc i8 %61 to i1
  %63 = zext i1 %62 to i8
  store i8 %63, ptr %27, align 1, !tbaa !14
  br label %64

64:                                               ; preds = %60
  br label %65

65:                                               ; preds = %64
  br label %66

66:                                               ; preds = %65
  store i32 -1, ptr %24, align 4, !tbaa !12
  br label %218

67:                                               ; No predecessors!
  br label %68

68:                                               ; preds = %67
  br label %69

69:                                               ; preds = %68
  br label %70

70:                                               ; preds = %69
  br label %71

71:                                               ; preds = %70, %43
  br label %72

72:                                               ; preds = %71, %35
  %73 = load i8, ptr @H5L_init_g, align 1, !tbaa !14, !range !16, !noundef !17
  %74 = trunc i8 %73 to i1
  br i1 %74, label %79, label %75

75:                                               ; preds = %72
  %76 = load i8, ptr @H5_libterm_g, align 1, !tbaa !14, !range !16, !noundef !17
  %77 = trunc i8 %76 to i1
  %78 = xor i1 %77, true
  br label %79

79:                                               ; preds = %75, %72
  %80 = phi i1 [ false, %72 ], [ %78, %75 ]
  %81 = xor i1 %80, true
  %82 = xor i1 %81, true
  %83 = zext i1 %82 to i32
  %84 = sext i32 %83 to i64
  %85 = call i64 @llvm.expect.i64(i64 %84, i64 0)
  %86 = icmp ne i64 %85, 0
  br i1 %86, label %87, label %110

87:                                               ; preds = %79
  store i8 1, ptr @H5L_init_g, align 1, !tbaa !14
  %88 = call i32 @H5L__init_package()
  %89 = icmp slt i32 %88, 0
  br i1 %89, label %90, label %109

90:                                               ; preds = %87
  store i8 0, ptr @H5L_init_g, align 1, !tbaa !14
  br label %91

91:                                               ; preds = %90
  br label %92

92:                                               ; preds = %91
  br label %93

93:                                               ; preds = %92
  %94 = load i64, ptr @H5E_FUNC_g, align 8, !tbaa !3
  %95 = load i64, ptr @H5E_CANTINIT_g, align 8, !tbaa !3
  %96 = call i32 (ptr, ptr, i32, i64, i64, ptr, ...) @H5E_printf_stack(ptr noundef @.str, ptr noundef @__func__.H5Lcreate_hard_async, i32 noundef 563, i64 noundef %94, i64 noundef %95, ptr noundef @.str.2)
  br label %97

97:                                               ; preds = %93
  br label %98

98:                                               ; preds = %97
  store i8 1, ptr %27, align 1, !tbaa !14
  %99 = load i8, ptr %27, align 1, !tbaa !14, !range !16, !noundef !17
  %100 = trunc i8 %99 to i1
  %101 = zext i1 %100 to i8
  store i8 %101, ptr %27, align 1, !tbaa !14
  br label %102

102:                                              ; preds = %98
  br label %103

103:                                              ; preds = %102
  br label %104

104:                                              ; preds = %103
  store i32 -1, ptr %24, align 4, !tbaa !12
  br label %218

105:                                              ; No predecessors!
  br label %106

106:                                              ; preds = %105
  br label %107

107:                                              ; preds = %106
  br label %108

108:                                              ; preds = %107
  br label %109

109:                                              ; preds = %108, %87
  br label %110

110:                                              ; preds = %109, %79
  br label %111

111:                                              ; preds = %110
  br label %112

112:                                              ; preds = %111
  br label %113

113:                                              ; preds = %112
  %114 = call i32 @H5CX_push(ptr noundef %25)
  %115 = icmp slt i32 %114, 0
  %116 = xor i1 %115, true
  %117 = xor i1 %116, true
  %118 = zext i1 %117 to i32
  %119 = sext i32 %118 to i64
  %120 = call i64 @llvm.expect.i64(i64 %119, i64 0)
  %121 = icmp ne i64 %120, 0
  br i1 %121, label %122, label %141

122:                                              ; preds = %113
  br label %123

123:                                              ; preds = %122
  br label %124

124:                                              ; preds = %123
  br label %125

125:                                              ; preds = %124
  %126 = load i64, ptr @H5E_FUNC_g, align 8, !tbaa !3
  %127 = load i64, ptr @H5E_CANTSET_g, align 8, !tbaa !3
  %128 = call i32 (ptr, ptr, i32, i64, i64, ptr, ...) @H5E_printf_stack(ptr noundef @.str, ptr noundef @__func__.H5Lcreate_hard_async, i32 noundef 563, i64 noundef %126, i64 noundef %127, ptr noundef @.str.3)
  br label %129

129:                                              ; preds = %125
  br label %130

130:                                              ; preds = %129
  store i8 1, ptr %27, align 1, !tbaa !14
  %131 = load i8, ptr %27, align 1, !tbaa !14, !range !16, !noundef !17
  %132 = trunc i8 %131 to i1
  %133 = zext i1 %132 to i8
  store i8 %133, ptr %27, align 1, !tbaa !14
  br label %134

134:                                              ; preds = %130
  br label %135

135:                                              ; preds = %134
  br label %136

136:                                              ; preds = %135
  store i32 -1, ptr %24, align 4, !tbaa !12
  br label %218

137:                                              ; No predecessors!
  br label %138

138:                                              ; preds = %137
  br label %139

139:                                              ; preds = %138
  br label %140

140:                                              ; preds = %139
  br label %142

141:                                              ; preds = %113
  store i8 1, ptr %26, align 1, !tbaa !14
  br label %142

142:                                              ; preds = %141, %140
  br label %143

143:                                              ; preds = %142
  br label %144

144:                                              ; preds = %143
  %145 = call i32 @H5E_clear_stack()
  %146 = load i64, ptr %20, align 8, !tbaa !3
  %147 = icmp ne i64 0, %146
  br i1 %147, label %148, label %149

148:                                              ; preds = %144
  store ptr %22, ptr %23, align 8, !tbaa !22
  br label %149

149:                                              ; preds = %148, %144
  %150 = load i64, ptr %14, align 8, !tbaa !3
  %151 = load ptr, ptr %15, align 8, !tbaa !7
  %152 = load i64, ptr %16, align 8, !tbaa !3
  %153 = load ptr, ptr %17, align 8, !tbaa !7
  %154 = load i64, ptr %18, align 8, !tbaa !3
  %155 = load i64, ptr %19, align 8, !tbaa !3
  %156 = load ptr, ptr %23, align 8, !tbaa !22
  %157 = call i32 @H5L__create_hard_api_common(i64 noundef %150, ptr noundef %151, i64 noundef %152, ptr noundef %153, i64 noundef %154, i64 noundef %155, ptr noundef %156, ptr noundef %21)
  %158 = icmp slt i32 %157, 0
  br i1 %158, label %159, label %178

159:                                              ; preds = %149
  br label %160

160:                                              ; preds = %159
  br label %161

161:                                              ; preds = %160
  br label %162

162:                                              ; preds = %161
  %163 = load i64, ptr @H5E_LINK_g, align 8, !tbaa !3
  %164 = load i64, ptr @H5E_CANTCREATE_g, align 8, !tbaa !3
  %165 = call i32 (ptr, ptr, i32, i64, i64, ptr, ...) @H5E_printf_stack(ptr noundef @.str, ptr noundef @__func__.H5Lcreate_hard_async, i32 noundef 572, i64 noundef %163, i64 noundef %164, ptr noundef @.str.30)
  br label %166

166:                                              ; preds = %162
  br label %167

167:                                              ; preds = %166
  store i8 1, ptr %27, align 1, !tbaa !14
  %168 = load i8, ptr %27, align 1, !tbaa !14, !range !16, !noundef !17
  %169 = trunc i8 %168 to i1
  %170 = zext i1 %169 to i8
  store i8 %170, ptr %27, align 1, !tbaa !14
  br label %171

171:                                              ; preds = %167
  br label %172

172:                                              ; preds = %171
  br label %173

173:                                              ; preds = %172
  store i32 -1, ptr %24, align 4, !tbaa !12
  br label %218

174:                                              ; No predecessors!
  br label %175

175:                                              ; preds = %174
  br label %176

176:                                              ; preds = %175
  br label %177

177:                                              ; preds = %176
  br label %178

178:                                              ; preds = %177, %149
  %179 = load ptr, ptr %22, align 8, !tbaa !22
  %180 = icmp ne ptr null, %179
  br i1 %180, label %181, label %217

181:                                              ; preds = %178
  %182 = load i64, ptr %20, align 8, !tbaa !3
  %183 = load ptr, ptr %21, align 8, !tbaa !29
  %184 = load ptr, ptr %22, align 8, !tbaa !22
  %185 = load ptr, ptr %11, align 8, !tbaa !7
  %186 = load ptr, ptr %12, align 8, !tbaa !7
  %187 = load i32, ptr %13, align 4, !tbaa !12
  %188 = load i64, ptr %14, align 8, !tbaa !3
  %189 = load ptr, ptr %15, align 8, !tbaa !7
  %190 = load i64, ptr %16, align 8, !tbaa !3
  %191 = load ptr, ptr %17, align 8, !tbaa !7
  %192 = load i64, ptr %18, align 8, !tbaa !3
  %193 = load i64, ptr %19, align 8, !tbaa !3
  %194 = load i64, ptr %20, align 8, !tbaa !3
  %195 = call i32 (i64, ptr, ptr, ptr, ptr, ...) @H5ES_insert(i64 noundef %182, ptr noundef %183, ptr noundef %184, ptr noundef @__func__.H5Lcreate_hard_async, ptr noundef @.str.31, ptr noundef @.str.19, ptr noundef %185, ptr noundef @.str.20, ptr noundef %186, ptr noundef @.str.21, i32 noundef %187, ptr noundef @.str.32, i64 noundef %188, ptr noundef @.str.33, ptr noundef %189, ptr noundef @.str.34, i64 noundef %190, ptr noundef @.str.35, ptr noundef %191, ptr noundef @.str.25, i64 noundef %192, ptr noundef @.str.26, i64 noundef %193, ptr noundef @.str.27, i64 noundef %194)
  %196 = icmp slt i32 %195, 0
  br i1 %196, label %197, label %216

197:                                              ; preds = %181
  br label %198

198:                                              ; preds = %197
  br label %199

199:                                              ; preds = %198
  br label %200

200:                                              ; preds = %199
  %201 = load i64, ptr @H5E_LINK_g, align 8, !tbaa !3
  %202 = load i64, ptr @H5E_CANTINSERT_g, align 8, !tbaa !3
  %203 = call i32 (ptr, ptr, i32, i64, i64, ptr, ...) @H5E_printf_stack(ptr noundef @.str, ptr noundef @__func__.H5Lcreate_hard_async, i32 noundef 581, i64 noundef %201, i64 noundef %202, ptr noundef @.str.28)
  br label %204

204:                                              ; preds = %200
  br label %205

205:                                              ; preds = %204
  store i8 1, ptr %27, align 1, !tbaa !14
  %206 = load i8, ptr %27, align 1, !tbaa !14, !range !16, !noundef !17
  %207 = trunc i8 %206 to i1
  %208 = zext i1 %207 to i8
  store i8 %208, ptr %27, align 1, !tbaa !14
  br label %209

209:                                              ; preds = %205
  br label %210

210:                                              ; preds = %209
  br label %211

211:                                              ; preds = %210
  store i32 -1, ptr %24, align 4, !tbaa !12
  br label %218

212:                                              ; No predecessors!
  br label %213

213:                                              ; preds = %212
  br label %214

214:                                              ; preds = %213
  br label %215

215:                                              ; preds = %214
  br label %216

216:                                              ; preds = %215, %181
  br label %217

217:                                              ; preds = %216, %178
  br label %218

218:                                              ; preds = %217, %211, %173, %136, %104, %66
  %219 = load i8, ptr %26, align 1, !tbaa !14, !range !16, !noundef !17
  %220 = trunc i8 %219 to i1
  %221 = xor i1 %220, true
  %222 = xor i1 %221, true
  %223 = zext i1 %222 to i32
  %224 = sext i32 %223 to i64
  %225 = call i64 @llvm.expect.i64(i64 %224, i64 1)
  %226 = icmp ne i64 %225, 0
  br i1 %226, label %227, label %229

227:                                              ; preds = %218
  %228 = call i32 @H5CX_pop(i1 noundef zeroext true)
  store i8 0, ptr %26, align 1, !tbaa !14
  br label %229

229:                                              ; preds = %227, %218
  %230 = load i8, ptr %27, align 1, !tbaa !14, !range !16, !noundef !17
  %231 = trunc i8 %230 to i1
  %232 = xor i1 %231, true
  %233 = xor i1 %232, true
  %234 = zext i1 %233 to i32
  %235 = sext i32 %234 to i64
  %236 = call i64 @llvm.expect.i64(i64 %235, i64 0)
  %237 = icmp ne i64 %236, 0
  br i1 %237, label %238, label %240

238:                                              ; preds = %229
  %239 = call i32 @H5E_dump_api_stack()
  br label %240

240:                                              ; preds = %238, %229
  %241 = load i32, ptr %24, align 4, !tbaa !12
  call void @llvm.lifetime.end.p0(i64 1, ptr %27) #8
  call void @llvm.lifetime.end.p0(i64 1, ptr %26) #8
  call void @llvm.lifetime.end.p0(i64 480, ptr %25) #8
  call void @llvm.lifetime.end.p0(i64 4, ptr %24) #8
  call void @llvm.lifetime.end.p0(i64 8, ptr %23) #8
  call void @llvm.lifetime.end.p0(i64 8, ptr %22) #8
  call void @llvm.lifetime.end.p0(i64 8, ptr %21) #8
  ret i32 %241
}