; Function Attrs: nounwind uwtable
define range(i32 -1, 1) i32 @H5Lcreate_hard_async(ptr noundef %0, ptr noundef %1, i32 noundef %2, i64 noundef %3, ptr noundef %4, i64 noundef %5, ptr noundef %6, i64 noundef %7, i64 noundef %8, i64 noundef %9) local_unnamed_addr #0 {
  %11 = alloca ptr, align 8
  %12 = alloca ptr, align 8
  %13 = alloca %struct.H5CX_node_t, align 8
  call void @llvm.lifetime.start.p0(i64 8, ptr nonnull %11) #7
  store ptr null, ptr %11, align 8, !tbaa !26
  call void @llvm.lifetime.start.p0(i64 8, ptr nonnull %12) #7
  store ptr null, ptr %12, align 8, !tbaa !25
  call void @llvm.lifetime.start.p0(i64 480, ptr nonnull %13) #7
  call void @llvm.memset.p0.i64(ptr noundef nonnull align 8 dereferenceable(480) %13, i8 0, i64 480, i1 false)
  %14 = load i8, ptr @H5_libinit_g, align 1, !tbaa !7, !range !9, !noundef !10
  %15 = trunc nuw i8 %14 to i1
  %16 = load i8, ptr @H5_libterm_g, align 1, !range !9
  %17 = trunc nuw i8 %16 to i1
  %18 = select i1 %15, i1 true, i1 %17
  br i1 %18, label %26, label %19, !prof !11

19:                                               ; preds = %10
  %20 = tail call i32 @H5_init_library() #7
  %21 = icmp slt i32 %20, 0
  br i1 %21, label %22, label %._crit_edge, !prof !12

._crit_edge:                                      ; preds = %19
  %.pre = load i8, ptr @H5_libterm_g, align 1, !range !9
  br label %26

22:                                               ; preds = %19
  %23 = load i64, ptr @H5E_FUNC_g, align 8, !tbaa !3
  %24 = load i64, ptr @H5E_CANTINIT_g, align 8, !tbaa !3
  %25 = tail call i32 (ptr, ptr, i32, i64, i64, ptr, ...) @H5E_printf_stack(ptr noundef nonnull @.str, ptr noundef nonnull @__func__.H5Lcreate_hard_async, i32 noundef 563, i64 noundef %23, i64 noundef %24, ptr noundef nonnull @.str.1) #7
  br label %.thread39

26:                                               ; preds = %._crit_edge, %10
  %27 = phi i8 [ %.pre, %._crit_edge ], [ %16, %10 ]
  %28 = load i8, ptr @H5L_init_g, align 1, !tbaa !7, !range !9, !noundef !10
  %29 = trunc nuw i8 %28 to i1
  %30 = trunc nuw i8 %27 to i1
  %31 = select i1 %29, i1 true, i1 %30
  br i1 %31, label %39, label %32, !prof !11

32:                                               ; preds = %26
  store i8 1, ptr @H5L_init_g, align 1, !tbaa !7
  %33 = tail call i32 @H5L__init_package() #7
  %34 = icmp slt i32 %33, 0
  br i1 %34, label %35, label %39, !prof !13

35:                                               ; preds = %32
  store i8 0, ptr @H5L_init_g, align 1, !tbaa !7
  %36 = load i64, ptr @H5E_FUNC_g, align 8, !tbaa !3
  %37 = load i64, ptr @H5E_CANTINIT_g, align 8, !tbaa !3
  %38 = tail call i32 (ptr, ptr, i32, i64, i64, ptr, ...) @H5E_printf_stack(ptr noundef nonnull @.str, ptr noundef nonnull @__func__.H5Lcreate_hard_async, i32 noundef 563, i64 noundef %36, i64 noundef %37, ptr noundef nonnull @.str.2) #7
  br label %.thread39

39:                                               ; preds = %26, %32
  %40 = call i32 @H5CX_push(ptr noundef nonnull %13) #7
  %41 = icmp slt i32 %40, 0
  br i1 %41, label %42, label %46, !prof !12

42:                                               ; preds = %39
  %43 = load i64, ptr @H5E_FUNC_g, align 8, !tbaa !3
  %44 = load i64, ptr @H5E_CANTSET_g, align 8, !tbaa !3
  %45 = call i32 (ptr, ptr, i32, i64, i64, ptr, ...) @H5E_printf_stack(ptr noundef nonnull @.str, ptr noundef nonnull @__func__.H5Lcreate_hard_async, i32 noundef 563, i64 noundef %43, i64 noundef %44, ptr noundef nonnull @.str.3) #7
  br label %.thread39

46:                                               ; preds = %39
  %47 = call i32 @H5E_clear_stack() #7
  %.not = icmp eq i64 %9, 0
  %spec.select = select i1 %.not, ptr null, ptr %12
  %48 = call fastcc i32 @H5L__create_hard_api_common(i64 noundef %3, ptr noundef %4, i64 noundef %5, ptr noundef %6, i64 noundef %7, i64 noundef %8, ptr noundef %spec.select, ptr noundef nonnull %11)
  %49 = icmp slt i32 %48, 0
  br i1 %49, label %50, label %54, !prof !19

50:                                               ; preds = %46
  %51 = load i64, ptr @H5E_LINK_g, align 8, !tbaa !3
  %52 = load i64, ptr @H5E_CANTCREATE_g, align 8, !tbaa !3
  %53 = call i32 (ptr, ptr, i32, i64, i64, ptr, ...) @H5E_printf_stack(ptr noundef nonnull @.str, ptr noundef nonnull @__func__.H5Lcreate_hard_async, i32 noundef 572, i64 noundef %51, i64 noundef %52, ptr noundef nonnull @.str.30) #7
  br label %.thread45

54:                                               ; preds = %46
  %55 = load ptr, ptr %12, align 8, !tbaa !25
  %.not30 = icmp eq ptr %55, null
  br i1 %.not30, label %65, label %56

56:                                               ; preds = %54
  %57 = load ptr, ptr %11, align 8, !tbaa !26
  %58 = call i32 (i64, ptr, ptr, ptr, ptr, ...) @H5ES_insert(i64 noundef %9, ptr noundef %57, ptr noundef nonnull %55, ptr noundef nonnull @__func__.H5Lcreate_hard_async, ptr noundef nonnull @.str.31, ptr noundef nonnull @.str.19, ptr noundef %0, ptr noundef nonnull @.str.20, ptr noundef %1, ptr noundef nonnull @.str.21, i32 noundef %2, ptr noundef nonnull @.str.32, i64 noundef %3, ptr noundef nonnull @.str.33, ptr noundef %4, ptr noundef nonnull @.str.34, i64 noundef %5, ptr noundef nonnull @.str.35, ptr noundef %6, ptr noundef nonnull @.str.25, i64 noundef %7, ptr noundef nonnull @.str.26, i64 noundef %8, ptr noundef nonnull @.str.27, i64 noundef %9) #7
  %59 = icmp slt i32 %58, 0
  br i1 %59, label %60, label %65, !prof !19

60:                                               ; preds = %56
  %61 = load i64, ptr @H5E_LINK_g, align 8, !tbaa !3
  %62 = load i64, ptr @H5E_CANTINSERT_g, align 8, !tbaa !3
  %63 = call i32 (ptr, ptr, i32, i64, i64, ptr, ...) @H5E_printf_stack(ptr noundef nonnull @.str, ptr noundef nonnull @__func__.H5Lcreate_hard_async, i32 noundef 581, i64 noundef %61, i64 noundef %62, ptr noundef nonnull @.str.28) #7
  br label %.thread45

.thread45:                                        ; preds = %60, %50
  %64 = call i32 @H5CX_pop(i1 noundef zeroext true) #7
  br label %.thread39

65:                                               ; preds = %54, %56
  %66 = call i32 @H5CX_pop(i1 noundef zeroext true) #7
  br label %68

.thread39:                                        ; preds = %42, %35, %22, %.thread45
  %67 = call i32 @H5E_dump_api_stack() #7
  br label %68

68:                                               ; preds = %65, %.thread39
  %.0273442 = phi i32 [ -1, %.thread39 ], [ 0, %65 ]
  call void @llvm.lifetime.end.p0(i64 480, ptr nonnull %13) #7
  call void @llvm.lifetime.end.p0(i64 8, ptr nonnull %12) #7
  call void @llvm.lifetime.end.p0(i64 8, ptr nonnull %11) #7
  ret i32 %.0273442
}